target datalayout = "e-m:e-p270:32:32-p271:32:32-p272:64:64-i64:64-i128:128-f80:128-n8:16:32:64-S128"
target triple = "x86_64-pc-linux-gnu"

%class.ArenaStatCounter = type <{ i64, i64, i64, i64, i64, i64, i8, i8, [6 x i8], i64, i64, i32, [4 x i8] }>
%class.CompilerThread = type { %class.JavaThread, ptr, ptr, ptr, ptr, ptr, ptr, i8, ptr, %class.TimeStamp, ptr }
%class.JavaThread = type { %class.Thread, i8, %class.OopHandle, %class.OopHandle, %class.OopHandle, %class.OopHandle, %class.JavaFrameAnchor, ptr, %struct.JNIEnv_, ptr, ptr, ptr, ptr, ptr, ptr, ptr, ptr, %class.MemRegion, ptr, i8, ptr, ptr, ptr, i32, i32, %"struct.SafepointMechanism::ThreadData", ptr, ptr, i32, i32, i8, i8, i8, i8, i8, i8, i8, i32, i8, i32, i8, i8, i64, %union.anon, ptr, ptr, i64, i64, ptr, ptr, %class.StackOverflow, ptr, ptr, ptr, i32, i32, ptr, i32, i32, i32, ptr, ptr, i32, i64, i64, %class.StackWatermarks, %class.HandshakeState, ptr, i32, ptr, i32, i32, ptr, %class.Parker, ptr, ptr, %class.LockStack }
%class.Thread = type { %class.ThreadShadow.base, i64, [43 x i64], ptr, ptr, i32, ptr, i64, i64, %class.ThreadLocalAllocBuffer, i64, %class.ThreadHeapSampler, %class.ThreadStatisticalInfo, %class.JfrThreadLocal, ptr, ptr, ptr, ptr, ptr, ptr, i64, i32, i32, ptr, i32, i32, i32, i32, i8, ptr }
%class.ThreadShadow.base = type <{ ptr, ptr, ptr, i32 }>
%class.ThreadLocalAllocBuffer = type <{ ptr, ptr, ptr, ptr, ptr, i64, i64, i64, i64, i32, i32, i32, i32, i64, %class.AdaptiveWeightedAverage, [4 x i8] }>
%class.AdaptiveWeightedAverage = type { float, i32, i32, i8, float }
%class.ThreadHeapSampler = type { i64 }
%class.ThreadStatisticalInfo = type { i64, i64 }
%class.JfrThreadLocal = type <{ ptr, ptr, ptr, ptr, ptr, ptr, ptr, ptr, ptr, ptr, %class.RefCountHandle, i64, i64, i64, i64, i64, i64, i64, i64, i64, i64, i64, i32, i32, i32, i16, i8, i8, i8, i8, i8, [5 x i8] }>
%class.RefCountHandle = type { ptr }
%class.OopHandle = type { ptr }
%class.JavaFrameAnchor = type { ptr, ptr, ptr }
%struct.JNIEnv_ = type { ptr }
%class.MemRegion = type { ptr, i64 }
%"struct.SafepointMechanism::ThreadData" = type { i64, i64 }
%union.anon = type { ptr }
%class.StackOverflow = type { i32, ptr, ptr, ptr, ptr, ptr, ptr }
%class.StackWatermarks = type { ptr }
%class.HandshakeState = type <{ ptr, %class.FilterQueue, %class.Monitor, ptr, i8, i8, i8, [5 x i8] }>
%class.FilterQueue = type { ptr }
%class.Monitor = type { %class.Mutex }
%class.Mutex = type { ptr, %class.PlatformMonitor, ptr }
%class.PlatformMonitor = type { %class.PlatformMutex, %union.pthread_cond_t }
%class.PlatformMutex = type { %union.pthread_mutex_t }
%union.pthread_mutex_t = type { %struct.__pthread_mutex_s }
%struct.__pthread_mutex_s = type { i32, i32, i32, i32, i32, i16, i16, %struct.__pthread_internal_list }
%struct.__pthread_internal_list = type { ptr, ptr }
%union.pthread_cond_t = type { %struct.__pthread_cond_s }
%struct.__pthread_cond_s = type { %union.__atomic_wide_counter, %union.__atomic_wide_counter, [2 x i32], [2 x i32], i32, i32, [2 x i32] }
%union.__atomic_wide_counter = type { i64 }
%class.Parker = type { %class.PlatformParker }
%class.PlatformParker = type { i32, i32, [1 x %union.pthread_mutex_t], [2 x %union.pthread_cond_t] }
%class.LockStack = type { i32, i64, [8 x ptr] }
%class.TimeStamp = type { i64 }
%class.AbstractCompiler = type { ptr, i32, i32, i8, [7 x i8], %class.CompilerStatistics }
%class.CompilerStatistics = type { %"class.CompilerStatistics::Data", %"class.CompilerStatistics::Data", i32, i32 }
%"class.CompilerStatistics::Data" = type { %class.elapsedTimer, i32, i32 }
%class.elapsedTimer = type <{ i64, i64, i8, [7 x i8] }>
%class.Compile = type <{ %class.Phase, i32, %class.Options, [4 x i8], ptr, i32, [4 x i8], ptr, ptr, ptr, ptr, ptr, i32, i32, i32, [4 x i8], i64, i8, i8, [2 x i8], i32, i8, i8, i8, i8, i8, i8, i8, i8, i8, [3 x i8], i32, i8, [3 x i8], [30 x i32], i8, [3 x i8], i32, i8, i8, i8, i8, i8, i8, i8, i8, i8, i8, i8, i8, i8, [3 x i8], i32, i32, [4 x i8], %class.Arena, ptr, ptr, ptr, ptr, %class.CHeapStringHolder, ptr, %class.GrowableArray, %class.GrowableArray.3, %class.GrowableArray.6, %class.GrowableArray.3, %class.GrowableArray.3, %class.GrowableArray.3, %class.GrowableArray.9, %class.GrowableArray.12, ptr, i32, i32, %class.VectorSet, %class.Arena, %class.Arena, ptr, ptr, ptr, ptr, ptr, ptr, ptr, ptr, ptr, %class.Arena, ptr, ptr, %class.CloneMap, i64, ptr, ptr, ptr, i32, i32, [64 x %"struct.Compile::AliasCacheEntry"], ptr, ptr, ptr, ptr, %class.GrowableArray, %class.GrowableArray, %class.GrowableArray, %class.GrowableArray, i32, i32, i8, [7 x i8], ptr, ptr, i32, [4 x i8], ptr, ptr, ptr, i32, i32, ptr, ptr, %class.RegMask, ptr, ptr, i32, [4 x i8], ptr, %class.TimeInstant, i32, [4 x i8] }>
%class.Phase = type { i32, ptr }
%class.Options = type { i8, i8, i8, i8, i8, i8, i8, i8 }
%class.CHeapStringHolder = type { ptr }
%class.GrowableArray.6 = type { %class.GrowableArrayWithAllocator.7, %class.GrowableArrayMetadata }
%class.GrowableArrayWithAllocator.7 = type { %class.GrowableArrayView.8 }
%class.GrowableArrayView.8 = type { %class.GrowableArrayBase, ptr }
%class.GrowableArrayBase = type { i32, i32 }
%class.GrowableArrayMetadata = type { i64 }
%class.GrowableArray.3 = type { %class.GrowableArrayWithAllocator.4, %class.GrowableArrayMetadata }
%class.GrowableArrayWithAllocator.4 = type { %class.GrowableArrayView.5 }
%class.GrowableArrayView.5 = type { %class.GrowableArrayBase, ptr }
%class.GrowableArray.9 = type { %class.GrowableArrayWithAllocator.10, %class.GrowableArrayMetadata }
%class.GrowableArrayWithAllocator.10 = type { %class.GrowableArrayView.11 }
%class.GrowableArrayView.11 = type { %class.GrowableArrayBase, ptr }
%class.GrowableArray.12 = type { %class.GrowableArrayWithAllocator.13, %class.GrowableArrayMetadata }
%class.GrowableArrayWithAllocator.13 = type { %class.GrowableArrayView.14 }
%class.GrowableArrayView.14 = type { %class.GrowableArrayBase, ptr }
%class.VectorSet = type { i32, ptr, i32, ptr }
%class.Arena = type { i8, i8, i64, ptr, ptr, ptr, ptr }
%class.CloneMap = type <{ i8, [7 x i8], ptr, i32, [4 x i8] }>
%"struct.Compile::AliasCacheEntry" = type { ptr, i32 }
%class.GrowableArray = type { %class.GrowableArrayWithAllocator, %class.GrowableArrayMetadata }
%class.GrowableArrayWithAllocator = type { %class.GrowableArrayView }
%class.GrowableArrayView = type { %class.GrowableArrayBase, ptr }
%class.RegMask = type { %union.anon.15, i32, i32 }
%union.anon.15 = type { [11 x i64] }
%class.TimeInstant = type { %class.CompositeCounterRepresentation }
%class.CompositeCounterRepresentation = type { %class.Representation }
%class.Representation = type { %class.PairRep }
%class.PairRep = type { i64, i64 }
%class.ciEnv = type <{ ptr, %class.Arena, ptr, ptr, ptr, ptr, %class.CHeapStringHolder, i8, [3 x i8], i32, i8, [3 x i8], i32, ptr, ptr, ptr, ptr, i32, [4 x i8], i64, i8, i8, i8, i8, i8, i8, i8, i8, ptr, ptr, ptr, ptr, ptr, ptr, ptr, ptr, ptr, [1025 x i8], [7 x i8] }>

@_ZN6Thread12_thr_currentE = external thread_local global ptr, align 8

; Function Attrs: mustprogress nounwind uwtable
define linkonce_odr hidden noundef ptr @_ZN10JavaThread4castEP6Thread(ptr noundef %0) #1 comdat align 2 {
  %2 = alloca ptr, align 8
  store ptr %0, ptr %2, align 8
  %3 = load ptr, ptr %2, align 8
  ret ptr %3
}

; Function Attrs: mustprogress nounwind uwtable
define linkonce_odr hidden noundef ptr @_ZN14CompilerThread4castEP6Thread(ptr noundef %0) #1 comdat align 2 {
  %2 = alloca ptr, align 8
  store ptr %0, ptr %2, align 8
  %3 = load ptr, ptr %2, align 8
  ret ptr %3
}

; Function Attrs: mustprogress nounwind uwtable
define linkonce_odr hidden noundef ptr @_ZN10JavaThread7currentEv() #1 comdat align 2 {
  %1 = call noundef ptr @_ZN6Thread7currentEv()
  %2 = call noundef ptr @_ZN10JavaThread4castEP6Thread(ptr noundef %1)
  ret ptr %2
}

; Function Attrs: mustprogress nounwind uwtable
define linkonce_odr hidden noundef ptr @_ZN14CompilerThread3envEv(ptr noundef nonnull align 8 dereferenceable(1880) %0) #1 comdat align 2 {
  %2 = alloca ptr, align 8
  store ptr %0, ptr %2, align 8
  %3 = load ptr, ptr %2, align 8
  %4 = getelementptr inbounds %class.CompilerThread, ptr %3, i32 0, i32 2
  %5 = load ptr, ptr %4, align 8
  ret ptr %5
}

; Function Attrs: mustprogress nounwind uwtable
define linkonce_odr hidden noundef ptr @_ZN14CompilerThread7currentEv() #1 comdat align 2 {
  %1 = call noundef ptr @_ZN10JavaThread7currentEv()
  %2 = call noundef ptr @_ZN14CompilerThread4castEP6Thread(ptr noundef %1)
  ret ptr %2
}

; Function Attrs: mustprogress nounwind uwtable
define linkonce_odr hidden noundef ptr @_ZNK5ciEnv13compiler_dataEv(ptr noundef nonnull align 8 dereferenceable(1265) %0) #1 comdat align 2 {
  %2 = alloca ptr, align 8
  store ptr %0, ptr %2, align 8
  %3 = load ptr, ptr %2, align 8
  %4 = getelementptr inbounds %class.ciEnv, ptr %3, i32 0, i32 15
  %5 = load ptr, ptr %4, align 8
  ret ptr %5
}

; Function Attrs: mustprogress nounwind uwtable
define linkonce_odr hidden noundef ptr @_ZN5ciEnv7currentEv() #1 comdat align 2 {
  %1 = call noundef ptr @_ZN14CompilerThread7currentEv()
  %2 = call noundef ptr @_ZN14CompilerThread3envEv(ptr noundef nonnull align 8 dereferenceable(1880) %1)
  ret ptr %2
}

; Function Attrs: mustprogress nounwind uwtable
define linkonce_odr hidden noundef ptr @_ZN6Thread15current_or_nullEv() #1 comdat align 2 {
  %1 = call align 8 ptr @llvm.threadlocal.address.p0(ptr align 8 @_ZN6Thread12_thr_currentE)
  %2 = load ptr, ptr %1, align 8
  ret ptr %2
}

; Function Attrs: mustprogress nounwind uwtable
define linkonce_odr hidden noundef i32 @_ZNK7Compile10live_nodesEv(ptr noundef nonnull align 8 dereferenceable(2316) %0) #1 comdat align 2 {
  %2 = alloca ptr, align 8
  %3 = alloca i32, align 4
  store ptr %0, ptr %2, align 8
  %4 = load ptr, ptr %2, align 8
  %5 = getelementptr inbounds %class.Compile, ptr %4, i32 0, i32 71
  %6 = load i32, ptr %5, align 8
  %7 = getelementptr inbounds %class.Compile, ptr %4, i32 0, i32 72
  %8 = load i32, ptr %7, align 4
  %9 = sub i32 %6, %8
  store i32 %9, ptr %3, align 4
  %10 = load i32, ptr %3, align 4
  ret i32 %10
}

; Function Attrs: mustprogress nounwind uwtable
define linkonce_odr hidden noundef ptr @_ZN7Compile7currentEv() #1 comdat align 2 {
  %1 = call noundef ptr @_ZN5ciEnv7currentEv()
  %2 = call noundef ptr @_ZNK5ciEnv13compiler_dataEv(ptr noundef nonnull align 8 dereferenceable(1265) %1)
  ret ptr %2
}

; Function Attrs: mustprogress nounwind uwtable
define linkonce_odr hidden noundef zeroext i8 @_ZNK16AbstractCompiler4typeEv(ptr noundef nonnull align 8 dereferenceable(96) %0) #1 comdat align 2 {
  %2 = alloca ptr, align 8
  store ptr %0, ptr %2, align 8
  %3 = load ptr, ptr %2, align 8
  %4 = getelementptr inbounds %class.AbstractCompiler, ptr %3, i32 0, i32 3
  %5 = load i8, ptr %4, align 8
  ret i8 %5
}

; Function Attrs: mustprogress nounwind uwtable
define linkonce_odr hidden noundef ptr @_ZN14CompilerThread4taskEv(ptr noundef nonnull align 8 dereferenceable(1880) %0) #1 comdat align 2 {
  %2 = alloca ptr, align 8
  store ptr %0, ptr %2, align 8
  %3 = load ptr, ptr %2, align 8
  %4 = getelementptr inbounds %class.CompilerThread, ptr %3, i32 0, i32 4
  %5 = load volatile ptr, ptr %4, align 8
  ret ptr %5
}

; Function Attrs: mustprogress nounwind uwtable
define linkonce_odr hidden noundef ptr @_ZNK6Thread18as_Compiler_threadEv(ptr noundef nonnull align 8 dereferenceable(888) %0) #1 comdat align 2 {
  %2 = alloca ptr, align 8
  store ptr %0, ptr %2, align 8
  %3 = load ptr, ptr %2, align 8
  ret ptr %3
}

; Function Attrs: mustprogress nounwind uwtable
define linkonce_odr hidden noundef ptr @_ZN6Thread7currentEv() #1 comdat align 2 {
  %1 = alloca ptr, align 8
  %2 = call noundef ptr @_ZN6Thread15current_or_nullEv()
  store ptr %2, ptr %1, align 8
  %3 = load ptr, ptr %1, align 8
  ret ptr %3
}

; Function Attrs: mustprogress nounwind uwtable
define hidden noundef i64 @_ZNK16ArenaStatCounter16peak_since_startEv(ptr noundef nonnull align 8 dereferenceable(76) %0) #1 align 2 {
  %2 = alloca ptr, align 8
  store ptr %0, ptr %2, align 8
  %3 = load ptr, ptr %2, align 8
  %4 = getelementptr inbounds %class.ArenaStatCounter, ptr %3, i32 0, i32 2
  %5 = load i64, ptr %4, align 8
  %6 = getelementptr inbounds %class.ArenaStatCounter, ptr %3, i32 0, i32 1
  %7 = load i64, ptr %6, align 8
  %8 = icmp ugt i64 %5, %7
  br i1 %8, label %9, label %15

9:                                                ; preds = %1
  %10 = getelementptr inbounds %class.ArenaStatCounter, ptr %3, i32 0, i32 2
  %11 = load i64, ptr %10, align 8
  %12 = getelementptr inbounds %class.ArenaStatCounter, ptr %3, i32 0, i32 1
  %13 = load i64, ptr %12, align 8
  %14 = sub i64 %11, %13
  br label %16

15:                                               ; preds = %1
  br label %16

16:                                               ; preds = %15, %9
  %17 = phi i64 [ %14, %9 ], [ 0, %15 ]
  ret i64 %17
}

; Function Attrs: mustprogress nounwind uwtable
define hidden void @_ZN16ArenaStatCounter20update_c2_node_countEv(ptr noundef nonnull align 8 dereferenceable(76) %0) #1 align 2 {
  %2 = alloca ptr, align 8
  %3 = alloca ptr, align 8
  %4 = alloca ptr, align 8
  %5 = alloca ptr, align 8
  store ptr %0, ptr %2, align 8
  %6 = load ptr, ptr %2, align 8
  %7 = call noundef ptr @_ZN6Thread7currentEv()
  %8 = call noundef ptr @_ZNK6Thread18as_Compiler_threadEv(ptr noundef nonnull align 8 dereferenceable(888) %7)
  store ptr %8, ptr %3, align 8
  %9 = load ptr, ptr %3, align 8
  %10 = call noundef ptr @_ZN14CompilerThread4taskEv(ptr noundef nonnull align 8 dereferenceable(1880) %9)
  store ptr %10, ptr %4, align 8
  %11 = load ptr, ptr %4, align 8
  %12 = icmp ne ptr %11, null
  br i1 %12, label %13, label %34

13:                                               ; preds = %1
  %14 = load ptr, ptr %3, align 8
  %15 = call noundef ptr @_ZN14CompilerThread4taskEv(ptr noundef nonnull align 8 dereferenceable(1880) %14)
  %16 = call noundef ptr @_ZNK11CompileTask8compilerEv(ptr noundef nonnull align 8 dereferenceable(176) %15)
  %17 = icmp ne ptr %16, null
  br i1 %17, label %18, label %34

18:                                               ; preds = %13
  %19 = load ptr, ptr %3, align 8
  %20 = call noundef ptr @_ZN14CompilerThread4taskEv(ptr noundef nonnull align 8 dereferenceable(1880) %19)
  %21 = call noundef ptr @_ZNK11CompileTask8compilerEv(ptr noundef nonnull align 8 dereferenceable(176) %20)
  %22 = call noundef zeroext i8 @_ZNK16AbstractCompiler4typeEv(ptr noundef nonnull align 8 dereferenceable(96) %21)
  %23 = zext i8 %22 to i32
  %24 = icmp eq i32 %23, 2
  br i1 %24, label %25, label %34

25:                                               ; preds = %18
  %26 = call noundef ptr @_ZN7Compile7currentEv()
  store ptr %26, ptr %5, align 8
  %27 = load ptr, ptr %5, align 8
  %28 = icmp ne ptr %27, null
  br i1 %28, label %29, label %33

29:                                               ; preds = %25
  %30 = load ptr, ptr %5, align 8
  %31 = call noundef i32 @_ZNK7Compile10live_nodesEv(ptr noundef nonnull align 8 dereferenceable(2316) %30)
  %32 = getelementptr inbounds %class.ArenaStatCounter, ptr %6, i32 0, i32 11
  store i32 %31, ptr %32, align 8
  br label %33

33:                                               ; preds = %29, %25
  br label %34

34:                                               ; preds = %33, %18, %13, %1
  ret void
}

; Function Attrs: mustprogress nounwind uwtable
define hidden noundef zeroext i1 @_ZN16ArenaStatCounter7accountEli(ptr noundef nonnull align 8 dereferenceable(76) %0, i64 noundef %1, i32 noundef %2) #1 align 2 {
  %4 = alloca ptr, align 8
  %5 = alloca i64, align 8
  %6 = alloca i32, align 4
  %7 = alloca i8, align 1
  store ptr %0, ptr %4, align 8
  store i64 %1, ptr %5, align 8
  store i32 %2, ptr %6, align 4
  %8 = load ptr, ptr %4, align 8
  store i8 0, ptr %7, align 1
  %9 = load i64, ptr %5, align 8
  %10 = getelementptr inbounds %class.ArenaStatCounter, ptr %8, i32 0, i32 0
  %11 = load i64, ptr %10, align 8
  %12 = add i64 %11, %9
  store i64 %12, ptr %10, align 8
  %13 = load i32, ptr %6, align 4
  %14 = trunc i32 %13 to i8
  switch i8 %14, label %25 [
    i8 1, label %15
    i8 3, label %20
  ]

15:                                               ; preds = %3
  %16 = load i64, ptr %5, align 8
  %17 = getelementptr inbounds %class.ArenaStatCounter, ptr %8, i32 0, i32 4
  %18 = load i64, ptr %17, align 8
  %19 = add i64 %18, %16
  store i64 %19, ptr %17, align 8
  br label %26

20:                                               ; preds = %3
  %21 = load i64, ptr %5, align 8
  %22 = getelementptr inbounds %class.ArenaStatCounter, ptr %8, i32 0, i32 3
  %23 = load i64, ptr %22, align 8
  %24 = add i64 %23, %21
  store i64 %24, ptr %22, align 8
  br label %26

25:                                               ; preds = %3
  br label %26

26:                                               ; preds = %25, %20, %15
  %27 = getelementptr inbounds %class.ArenaStatCounter, ptr %8, i32 0, i32 0
  %28 = load i64, ptr %27, align 8
  %29 = getelementptr inbounds %class.ArenaStatCounter, ptr %8, i32 0, i32 2
  %30 = load i64, ptr %29, align 8
  %31 = icmp ugt i64 %28, %30
  br i1 %31, label %32, label %57

32:                                               ; preds = %26
  %33 = getelementptr inbounds %class.ArenaStatCounter, ptr %8, i32 0, i32 0
  %34 = load i64, ptr %33, align 8
  %35 = getelementptr inbounds %class.ArenaStatCounter, ptr %8, i32 0, i32 2
  store i64 %34, ptr %35, align 8
  %36 = getelementptr inbounds %class.ArenaStatCounter, ptr %8, i32 0, i32 3
  %37 = load i64, ptr %36, align 8
  %38 = getelementptr inbounds %class.ArenaStatCounter, ptr %8, i32 0, i32 9
  store i64 %37, ptr %38, align 8
  %39 = getelementptr inbounds %class.ArenaStatCounter, ptr %8, i32 0, i32 4
  %40 = load i64, ptr %39, align 8
  %41 = getelementptr inbounds %class.ArenaStatCounter, ptr %8, i32 0, i32 10
  store i64 %40, ptr %41, align 8
  call void @_ZN16ArenaStatCounter20update_c2_node_countEv(ptr noundef nonnull align 8 dereferenceable(76) %8)
  store i8 1, ptr %7, align 1
  %42 = getelementptr inbounds %class.ArenaStatCounter, ptr %8, i32 0, i32 6
  %43 = load i8, ptr %42, align 8
  %44 = trunc i8 %43 to i1
  br i1 %44, label %56, label %45

45:                                               ; preds = %32
  %46 = getelementptr inbounds %class.ArenaStatCounter, ptr %8, i32 0, i32 5
  %47 = load i64, ptr %46, align 8
  %48 = icmp ugt i64 %47, 0
  br i1 %48, label %49, label %56

49:                                               ; preds = %45
  %50 = call noundef i64 @_ZNK16ArenaStatCounter16peak_since_startEv(ptr noundef nonnull align 8 dereferenceable(76) %8)
  %51 = getelementptr inbounds %class.ArenaStatCounter, ptr %8, i32 0, i32 5
  %52 = load i64, ptr %51, align 8
  %53 = icmp ugt i64 %50, %52
  br i1 %53, label %54, label %56

54:                                               ; preds = %49
  %55 = getelementptr inbounds %class.ArenaStatCounter, ptr %8, i32 0, i32 6
  store i8 1, ptr %55, align 8
  br label %56

56:                                               ; preds = %54, %49, %45, %32
  br label %57

57:                                               ; preds = %56, %26
  %58 = load i8, ptr %7, align 1
  %59 = trunc i8 %58 to i1
  ret i1 %59
}