; Function Attrs: mustprogress nounwind uwtable
define hidden noundef zeroext i1 @_ZN16ArenaStatCounter7accountEli(ptr nocapture noundef nonnull align 8 dereferenceable(76) %0, i64 noundef %1, i32 noundef %2) local_unnamed_addr #3 align 2 {
  %4 = load i64, ptr %0, align 8
  %5 = add i64 %4, %1
  store i64 %5, ptr %0, align 8
  %6 = trunc i32 %2 to i8
  switch i8 %6, label %11 [
    i8 1, label %.sink.split
    i8 3, label %7
  ]

7:                                                ; preds = %3
  br label %.sink.split

.sink.split:                                      ; preds = %3, %7
  %.sink8 = phi i64 [ 24, %7 ], [ 32, %3 ]
  %8 = getelementptr inbounds i8, ptr %0, i64 %.sink8
  %9 = load i64, ptr %8, align 8
  %10 = add i64 %9, %1
  store i64 %10, ptr %8, align 8
  br label %11

11:                                               ; preds = %.sink.split, %3
  %12 = getelementptr inbounds i8, ptr %0, i64 16
  %13 = load i64, ptr %12, align 8
  %14 = icmp ugt i64 %5, %13
  br i1 %14, label %15, label %57

15:                                               ; preds = %11
  store i64 %5, ptr %12, align 8
  %16 = getelementptr inbounds i8, ptr %0, i64 24
  %17 = getelementptr inbounds i8, ptr %0, i64 56
  %18 = load <2 x i64>, ptr %16, align 8
  store <2 x i64> %18, ptr %17, align 8
  %19 = tail call align 8 ptr @llvm.threadlocal.address.p0(ptr align 8 @_ZN6Thread12_thr_currentE)
  %20 = load ptr, ptr %19, align 8
  %21 = getelementptr inbounds i8, ptr %20, i64 1824
  %22 = load volatile ptr, ptr %21, align 8
  %.not.i = icmp eq ptr %22, null
  br i1 %.not.i, label %_ZN16ArenaStatCounter20update_c2_node_countEv.exit, label %23

23:                                               ; preds = %15
  %24 = load volatile ptr, ptr %21, align 8
  %25 = tail call noundef ptr @_ZNK11CompileTask8compilerEv(ptr noundef nonnull align 8 dereferenceable(176) %24) #14
  %.not7.i = icmp eq ptr %25, null
  br i1 %.not7.i, label %_ZN16ArenaStatCounter20update_c2_node_countEv.exit, label %26

26:                                               ; preds = %23
  %27 = load volatile ptr, ptr %21, align 8
  %28 = tail call noundef ptr @_ZNK11CompileTask8compilerEv(ptr noundef nonnull align 8 dereferenceable(176) %27) #14
  %29 = getelementptr inbounds i8, ptr %28, i64 16
  %30 = load i8, ptr %29, align 8
  %31 = icmp eq i8 %30, 2
  br i1 %31, label %32, label %_ZN16ArenaStatCounter20update_c2_node_countEv.exit

32:                                               ; preds = %26
  %33 = load ptr, ptr %19, align 8
  %34 = getelementptr inbounds i8, ptr %33, i64 1808
  %35 = load ptr, ptr %34, align 8
  %36 = getelementptr inbounds i8, ptr %35, i64 128
  %37 = load ptr, ptr %36, align 8
  %.not8.i = icmp eq ptr %37, null
  br i1 %.not8.i, label %_ZN16ArenaStatCounter20update_c2_node_countEv.exit, label %38

38:                                               ; preds = %32
  %39 = getelementptr inbounds i8, ptr %37, i64 592
  %40 = load i32, ptr %39, align 8
  %41 = getelementptr inbounds i8, ptr %37, i64 596
  %42 = load i32, ptr %41, align 4
  %43 = sub i32 %40, %42
  %44 = getelementptr inbounds i8, ptr %0, i64 72
  store i32 %43, ptr %44, align 8
  br label %_ZN16ArenaStatCounter20update_c2_node_countEv.exit

_ZN16ArenaStatCounter20update_c2_node_countEv.exit: ; preds = %15, %23, %26, %32, %38
  %45 = getelementptr inbounds i8, ptr %0, i64 48
  %46 = load i8, ptr %45, align 8
  %47 = trunc i8 %46 to i1
  br i1 %47, label %57, label %48

48:                                               ; preds = %_ZN16ArenaStatCounter20update_c2_node_countEv.exit
  %49 = getelementptr inbounds i8, ptr %0, i64 40
  %50 = load i64, ptr %49, align 8
  %.not = icmp eq i64 %50, 0
  br i1 %.not, label %57, label %51

51:                                               ; preds = %48
  %52 = load i64, ptr %12, align 8
  %53 = getelementptr inbounds i8, ptr %0, i64 8
  %54 = load i64, ptr %53, align 8
  %spec.select.i = tail call noundef i64 @llvm.usub.sat.i64(i64 %52, i64 %54)
  %55 = icmp ugt i64 %spec.select.i, %50
  br i1 %55, label %56, label %57

56:                                               ; preds = %51
  store i8 1, ptr %45, align 8
  br label %57

57:                                               ; preds = %_ZN16ArenaStatCounter20update_c2_node_countEv.exit, %48, %51, %56, %11
  ret i1 %14
}